; Function Attrs: nounwind uwtable
define hidden noundef i32 @phpdbg_do_set_prompt(ptr noundef readonly %0) #0 {
  %.not = icmp eq ptr %0, null
  br i1 %.not, label %5, label %2

2:                                                ; preds = %1
  %3 = load i32, ptr %0, align 8
  %4 = icmp eq i32 %3, 0
  br i1 %4, label %5, label %9

5:                                                ; preds = %2, %1
  %6 = load i32, ptr getelementptr inbounds (%struct._zend_phpdbg_globals, ptr @phpdbg_globals, i64 0, i32 39, i64 1), align 4
  %7 = tail call ptr @phpdbg_get_prompt() #4
  %8 = tail call i32 (i32, i32, ptr, ...) @phpdbg_print(i32 noundef 3, i32 noundef %6, ptr noundef nonnull @.str.25, ptr noundef %7) #4
  br label %12

9:                                                ; preds = %2
  %10 = getelementptr inbounds i8, ptr %0, i64 56
  %11 = load ptr, ptr %10, align 8
  tail call void @phpdbg_set_prompt(ptr noundef %11) #4
  br label %12

12:                                               ; preds = %9, %5
  ret i32 0
}